; Function Attrs: nofree norecurse nosync nounwind memory(argmem: read) uwtable
define range(i32 0, -1) i32 @Saig_TsiStateHash(ptr noundef readonly captures(none) %0, i32 noundef %1, i32 noundef %2) local_unnamed_addr #6 {
  %4 = icmp sgt i32 %1, 0
  br i1 %4, label %.lr.ph.preheader, label %._crit_edge

.lr.ph.preheader:                                 ; preds = %3
  %wide.trip.count = zext nneg i32 %1 to i64
  br label %.lr.ph

.lr.ph:                                           ; preds = %.lr.ph.preheader, %.lr.ph
  %indvars.iv = phi i64 [ 0, %.lr.ph.preheader ], [ %indvars.iv.next, %.lr.ph ]
  %.089 = phi i32 [ 0, %.lr.ph.preheader ], [ %11, %.lr.ph ]
  %5 = getelementptr inbounds nuw i32, ptr %0, i64 %indvars.iv
  %6 = load i32, ptr %5, align 4, !tbaa !39
  %7 = and i64 %indvars.iv, 127
  %8 = getelementptr inbounds nuw [128 x i32], ptr @Saig_TsiStateHash.s_FPrimes, i64 0, i64 %7
  %9 = load i32, ptr %8, align 4, !tbaa !39
  %10 = mul i32 %9, %6
  %11 = xor i32 %10, %.089
  %indvars.iv.next = add nuw nsw i64 %indvars.iv, 1
  %exitcond.not = icmp eq i64 %indvars.iv.next, %wide.trip.count
  br i1 %exitcond.not, label %._crit_edge, label %.lr.ph, !llvm.loop !40

._crit_edge:                                      ; preds = %.lr.ph, %3
  %.08.lcssa = phi i32 [ 0, %3 ], [ %11, %.lr.ph ]
  %12 = urem i32 %.08.lcssa, %2
  ret i32 %12
}